(dp0
S'tweetText'
p1
VRT @GE_Foundation: How #apprenticeships can help solve the #skillsgap: https://t.co/dCoSGS42Dz
p2
sS'label'
p3
S'6'
p4
s.(dp0
S'tweetText'
p1
VRT @Ostrov_A: Wishing all #ShabbatShalom, especially in #Israel, where we pray it is a peaceful #Shabbat.
p2
sS'label'
p3
S'5'
p4
s.(dp0
S'tweetText'
p1
VFind out more about @IL_Hunger and they work the do in #Chicago in the #StreetWise #Nonprofit guide! https://t.co/aMIDdSDZb9
p2
sS'label'
p3
S'6'
p4
s.(dp0
S'tweetText'
p1
VRT @ColeyHarvey: Think the Bengals are tight? Before Friday's walkthrough, righty Andy Dalton throws... https://t.co/kq769zzpUy https://t.c\u2026
p2
sS'label'
p3
S'6'
p4
s.(dp0
S'tweetText'
p1
VRT @Ostrov_A: #BDSFail of week! Pro-#BDS hate group 'Students for Justice in #Palestine' uses #Israeli co. @Wix to build website https://t.\u2026
p2
sS'label'
p3
S'6'
p4
s.(dp0
S'tweetText'
p1
Vhttps://t.co/Wwx5SV1JfY\u000a\u000a#EURUSD  &lt; 1.06 pour finir la semaine\u000aen attendant #BCE &amp; #FED en Decembre https://t.co/XVdk5DpwQi
p2
sS'label'
p3
S'6'
p4
s.(dp0
S'tweetText'
p1
VRT @BBGMedia: How Amazon makes Black Friday happen https://t.co/EaeCgTRif7 https://t.co/WKJu7iGuWK
p2
sS'label'
p3
S'6'
p4
s.(dp0
S'tweetText'
p1
VRT @DailyMailCeleb: Tom Hanks opens up about his wife's battle with cancer https://t.co/BCpZa9Dhl7 https://t.co/qfKapknXRJ
p2
sS'label'
p3
S'6'
p4
s.(dp0
S'tweetText'
p1
VRT @Ostrov_A: She's been a good girl all day. Yeah, I think she deserves trip to the #dog park! #woofwoof https://t.co/lj37g2BGMN
p2
sS'label'
p3
S'6'
p4
s.(dp0
S'tweetText'
p1
VRT @LekeishaSumner: Interesting take on academia &amp; Kim Kardashian. Why we all need to keep up with the Kardashians https://t.co/4nF511m5ui \u2026
p2
sS'label'
p3
S'6'
p4
s.(dp0
S'tweetText'
p1
VRT @ElsevierConnect: What patients &amp; physicians need to know for #prostate cancer screenings. @PennMedicine expert video Q&amp;A.  #Movember ht\u2026
p2
sS'label'
p3
S'6'
p4
s.(dp0
S'tweetText'
p1
V@AmigosInDanger GOOD LUCK ALLIE \u2764\ufe0f\u2764\ufe0f\u2764\ufe0f\u2764\ufe0f\U0001f49e\U0001f49e
p2
sS'label'
p3
S'6'
p4
s.(dp0
S'tweetText'
p1
VTODAY ONLY: Use promo code BLACKFRIDAY here: https://t.co/MGLg5E1t7l to save $5 on Beer Fest Beatdown tickets! https://t.co/2LVSoq8Pru
p2
sS'label'
p3
S'6'
p4
s.(dp0
S'tweetText'
p1
VRT @LoriMoreno: #Love #Romance #Nature #Fitness #Serenity \u000a#Luxury #Travel #Hikes #travelfoodiesTV\u000ahttps://t.co/QK4AzthBDq @GoPro https://t\u2026
p2
sS'label'
p3
S'6'
p4
s.(dp0
S'tweetText'
p1
VRT @LoriMoreno: Which 5 cities do you want to #travel to? #adventure #tours #luxury #luxurytravel #lovetravel #glamping #wishlist https://t\u2026
p2
sS'label'
p3
S'6'
p4
s.(dp0
S'tweetText'
p1
V@imagine_samar WOW! Samar, this is awesome!
p2
sS'label'
p3
S'6'
p4
s.(dp0
S'tweetText'
p1
VUnplag provides top solutions to #education #highered #edtech #edtechchat Stop by our Stand #C104 in @OEBconference #OEB15 #fightplagiarism
p2
sS'label'
p3
S'6'
p4
s.(dp0
S'tweetText'
p1
VRT @alightlover: Here's hoping there are some Black Friday deals on students loans, am I right?!
p2
sS'label'
p3
S'6'
p4
s.(dp0
S'tweetText'
p1
VSure-Fit Deluxe Comfort Club Chair Slipcover https://t.co/w8hAFC9W8S https://t.co/PosuRHtzjZ
p2
sS'label'
p3
S'6'
p4
s.(dp0
S'tweetText'
p1
VSure-Fit Deluxe Comfort Club Chair Slipcover https://t.co/w8hAFC9W8S https://t.co/cDXE1bFXVX
p2
sS'label'
p3
S'6'
p4
s.(dp0
S'tweetText'
p1
VDaphne Sky Blue Studded Zircon Pendant and Earrings for Anniversary Gift https://t.co/1OdZRsuZwN https://t.co/HSzvbcYYsj
p2
sS'label'
p3
S'6'
p4
s.(dp0
S'tweetText'
p1
VRT @SPSCC: REMINDER: We are closed today in observance of the Thanksgiving holiday.
p2
sS'label'
p3
S'6'
p4
s.(dp0
S'tweetText'
p1
V"8.92 CT" DAZZLING RARE HUGE NATURAL EARTHMINED HESSONITE GARNET FROM SRILANKA https://t.co/w7M0Ip43Dk https://t.co/96W2RqLOhB
p2
sS'label'
p3
S'6'
p4
s.(dp0
S'tweetText'
p1
VRT @amyjccuddy: I cannot wait until Feb 3 to read the new book by @AdamMGrant - Originals. https://t.co/LRU75Kev9C
p2
sS'label'
p3
S'6'
p4
s.(dp0
S'tweetText'
p1
VCreative Circle FESTIVE DELIGHTS Christmas Crewel Embroidery KIT #2253 4 Designs https://t.co/LtLavE5aHB https://t.co/Y676jJ1oKe
p2
sS'label'
p3
S'6'
p4
s.(dp0
S'tweetText'
p1
VCanada Scotts # 2253 used,, https://t.co/hktuva94hN https://t.co/3FHlkOVdT8
p2
sS'label'
p3
S'6'
p4
s.(dp0
S'tweetText'
p1
VCanada Scotts # 2253B used,, https://t.co/qdrq4vLSHM https://t.co/JjeAi6ZqG2
p2
sS'label'
p3
S'6'
p4
s.(dp0
S'tweetText'
p1
VRT @fox32news: "They are going to be obliterated. That gang just signed its death warrant" - Garry McCarthy https://t.co/HVa3Z7Z16P
p2
sS'label'
p3
S'5'
p4
s.(dp0
S'tweetText'
p1
VRT @DNAinfoCHI: "We are going to assign resources to make sure that neither one of those gangs will raise its head again." - Supt. McCarthy\u2026
p2
sS'label'
p3
S'6'
p4
s.(dp0
S'tweetText'
p1
VRT @craigrwall: McCarthy: the gang responsible for Tyshawn Lee's murder "just signed its own death warrant" and will be "obliterated." @fox\u2026
p2
sS'label'
p3
S'5'
p4
s.(dp0
S'tweetText'
p1
V#travel @FourSeasons 8 iconic destinations. One elegant trip journey of a lifetime: https://t.co/i5QuY9tJXu  #FSJet https://t.co/pVtwpg4pzq
p2
sS'label'
p3
S'6'
p4
s.(dp0
S'tweetText'
p1
VForex\u000a\u000a https://t.co/YX4TSY3Vo4\u000a\u000a#EURUSD  -  #USDJPY \u000a\u000a^^^""" https://t.co/UeuPfWF0wU
p2
sS'label'
p3
S'6'
p4
s.(dp0
S'tweetText'
p1
VRT @CurlsandCompany: Curly turkey day Queen!
p2
sS'label'
p3
S'6'
p4
s.